; ModuleID = 'source-C-CXX/52/1289.c'
source_filename = "source-C-CXX/52/1289.c"
target datalayout = "e-m:e-p270:32:32-p271:32:32-p272:64:64-i64:64-f80:128-n8:16:32:64-S128"
target triple = "x86_64-pc-linux-gnu"

@.str = private unnamed_addr constant [3 x i8] c"%d\00", align 1
@.str.1 = private unnamed_addr constant [4 x i8] c"%d,\00", align 1

; Function Attrs: nofree nounwind sspstrong uwtable
define dso_local i32 @main() local_unnamed_addr #0 {
  %1 = alloca i32, align 4
  %2 = alloca [300 x i32], align 16
  %3 = alloca [300 x i32], align 16
  %4 = bitcast i32* %1 to i8*
  call void @llvm.lifetime.start.p0i8(i64 4, i8* nonnull %4) #3
  %5 = bitcast [300 x i32]* %2 to i8*
  call void @llvm.lifetime.start.p0i8(i64 1200, i8* nonnull %5) #3
  %6 = bitcast [300 x i32]* %3 to i8*
  call void @llvm.lifetime.start.p0i8(i64 1200, i8* nonnull %6) #3
  %7 = call i32 (i8*, ...) @__isoc99_scanf(i8* getelementptr inbounds ([3 x i8], [3 x i8]* @.str, i64 0, i64 0), i32* nonnull %1)
  %8 = load i32, i32* %1, align 4, !tbaa !5
  %9 = icmp sgt i32 %8, 0
  br i1 %9, label %10, label %67

10:                                               ; preds = %0, %10
  %11 = phi i64 [ %14, %10 ], [ 0, %0 ]
  %12 = getelementptr inbounds [300 x i32], [300 x i32]* %2, i64 0, i64 %11
  %13 = call i32 (i8*, ...) @__isoc99_scanf(i8* getelementptr inbounds ([3 x i8], [3 x i8]* @.str, i64 0, i64 0), i32* nonnull %12)
  %14 = add nuw nsw i64 %11, 1
  %15 = load i32, i32* %1, align 4, !tbaa !5
  %16 = sext i32 %15 to i64
  %17 = icmp slt i64 %14, %16
  br i1 %17, label %10, label %18, !llvm.loop !9

18:                                               ; preds = %10
  %19 = getelementptr inbounds [300 x i32], [300 x i32]* %2, i64 0, i64 0
  %20 = load i32, i32* %19, align 16, !tbaa !5
  %21 = getelementptr inbounds [300 x i32], [300 x i32]* %3, i64 0, i64 0
  store i32 %20, i32* %21, align 16, !tbaa !5
  %22 = icmp sgt i32 %15, 1
  br i1 %22, label %23, label %67

23:                                               ; preds = %18
  %24 = zext i32 %15 to i64
  br label %25

25:                                               ; preds = %23, %56
  %26 = phi i64 [ 1, %23 ], [ %58, %56 ]
  %27 = phi i32 [ 0, %23 ], [ %57, %56 ]
  %28 = icmp slt i32 %27, 0
  br i1 %28, label %56, label %29

29:                                               ; preds = %25
  %30 = getelementptr inbounds [300 x i32], [300 x i32]* %2, i64 0, i64 %26
  %31 = load i32, i32* %30, align 4, !tbaa !5
  br label %36

32:                                               ; preds = %56
  %33 = icmp sgt i32 %57, 0
  br i1 %33, label %34, label %67

34:                                               ; preds = %32
  %35 = zext i32 %57 to i64
  br label %60

36:                                               ; preds = %29, %51
  %37 = phi i64 [ 0, %29 ], [ %54, %51 ]
  %38 = phi i32 [ %27, %29 ], [ %53, %51 ]
  %39 = add nsw i32 %38, 1
  %40 = getelementptr inbounds [300 x i32], [300 x i32]* %3, i64 0, i64 %37
  %41 = load i32, i32* %40, align 4, !tbaa !5
  %42 = icmp eq i32 %31, %41
  br i1 %42, label %56, label %43

43:                                               ; preds = %36
  %44 = zext i32 %38 to i64
  %45 = icmp eq i64 %37, %44
  br i1 %45, label %48, label %46

46:                                               ; preds = %43
  %47 = sext i32 %38 to i64
  br label %51

48:                                               ; preds = %43
  %49 = sext i32 %39 to i64
  %50 = getelementptr inbounds [300 x i32], [300 x i32]* %3, i64 0, i64 %49
  store i32 %31, i32* %50, align 4, !tbaa !5
  br label %51

51:                                               ; preds = %46, %48
  %52 = phi i64 [ %47, %46 ], [ %49, %48 ]
  %53 = phi i32 [ %38, %46 ], [ %39, %48 ]
  %54 = add nuw nsw i64 %37, 1
  %55 = icmp slt i64 %37, %52
  br i1 %55, label %36, label %56, !llvm.loop !11

56:                                               ; preds = %36, %51, %25
  %57 = phi i32 [ %27, %25 ], [ %53, %51 ], [ %38, %36 ]
  %58 = add nuw nsw i64 %26, 1
  %59 = icmp eq i64 %58, %24
  br i1 %59, label %32, label %25, !llvm.loop !12

60:                                               ; preds = %34, %60
  %61 = phi i64 [ 0, %34 ], [ %65, %60 ]
  %62 = getelementptr inbounds [300 x i32], [300 x i32]* %3, i64 0, i64 %61
  %63 = load i32, i32* %62, align 4, !tbaa !5
  %64 = call i32 (i8*, ...) @printf(i8* nonnull dereferenceable(1) getelementptr inbounds ([4 x i8], [4 x i8]* @.str.1, i64 0, i64 0), i32 %63)
  %65 = add nuw nsw i64 %61, 1
  %66 = icmp eq i64 %65, %35
  br i1 %66, label %67, label %60, !llvm.loop !13

67:                                               ; preds = %60, %0, %18, %32
  %68 = phi i32 [ %57, %32 ], [ 0, %18 ], [ 0, %0 ], [ %57, %60 ]
  %69 = sext i32 %68 to i64
  %70 = getelementptr inbounds [300 x i32], [300 x i32]* %3, i64 0, i64 %69
  %71 = load i32, i32* %70, align 4, !tbaa !5
  %72 = call i32 (i8*, ...) @printf(i8* nonnull dereferenceable(1) getelementptr inbounds ([3 x i8], [3 x i8]* @.str, i64 0, i64 0), i32 %71)
  call void @llvm.lifetime.end.p0i8(i64 1200, i8* nonnull %6) #3
  call void @llvm.lifetime.end.p0i8(i64 1200, i8* nonnull %5) #3
  call void @llvm.lifetime.end.p0i8(i64 4, i8* nonnull %4) #3
  ret i32 0
}

; Function Attrs: argmemonly mustprogress nofree nosync nounwind willreturn
declare void @llvm.lifetime.start.p0i8(i64 immarg, i8* nocapture) #1

; Function Attrs: nofree nounwind
declare noundef i32 @__isoc99_scanf(i8* nocapture noundef readonly, ...) local_unnamed_addr #2

; Function Attrs: nofree nounwind
declare noundef i32 @printf(i8* nocapture noundef readonly, ...) local_unnamed_addr #2

; Function Attrs: argmemonly mustprogress nofree nosync nounwind willreturn
declare void @llvm.lifetime.end.p0i8(i64 immarg, i8* nocapture) #1


!llvm.module.flags = !{!0, !1, !2, !3}
!llvm.ident = !{!4}

!0 = !{i32 1, !"wchar_size", i32 4}
!1 = !{i32 7, !"PIC Level", i32 2}
!2 = !{i32 7, !"PIE Level", i32 2}
!3 = !{i32 7, !"uwtable", i32 1}
!4 = !{!"clang version 13.0.0"}
!5 = !{!6, !6, i64 0}
!6 = !{!"int", !7, i64 0}
!7 = !{!"omnipotent char", !8, i64 0}
!8 = !{!"Simple C/C++ TBAA"}
!9 = distinct !{!9, !10}
!10 = !{!"llvm.loop.mustprogress"}
!11 = distinct !{!11, !10}
!12 = distinct !{!12, !10}
!13 = distinct !{!13, !10}
